; Function Attrs: nounwind uwtable
define internal range(i32 -1, 1) i32 @siftup(ptr noundef readonly captures(none) %0, i64 noundef %1) #0 {
  %3 = getelementptr i8, ptr %0, i64 16
  %.val58 = load i64, ptr %3, align 8, !tbaa !21
  %.not = icmp slt i64 %1, %.val58
  br i1 %.not, label %6, label %4

4:                                                ; preds = %2
  %5 = load ptr, ptr @PyExc_IndexError, align 8, !tbaa !3
  tail call void @PyErr_SetString(ptr noundef %5, ptr noundef nonnull @.str.12) #2
  br label %.thread

6:                                                ; preds = %2
  %7 = getelementptr inbounds nuw i8, ptr %0, i64 24
  %8 = ashr i64 %.val58, 1
  %9 = icmp slt i64 %1, %8
  br i1 %9, label %.lr.ph.preheader, label %._crit_edge

.lr.ph.preheader:                                 ; preds = %6
  %10 = load ptr, ptr %7, align 8, !tbaa !23
  br label %.lr.ph

.lr.ph:                                           ; preds = %.lr.ph.preheader, %47
  %.04265 = phi i64 [ %.044, %47 ], [ %1, %.lr.ph.preheader ]
  %.04664 = phi ptr [ %.147, %47 ], [ %10, %.lr.ph.preheader ]
  %11 = shl i64 %.04265, 1
  %12 = or disjoint i64 %11, 1
  %13 = add i64 %11, 2
  %14 = icmp slt i64 %13, %.val58
  br i1 %14, label %15, label %47

15:                                               ; preds = %.lr.ph
  %16 = getelementptr ptr, ptr %.04664, i64 %12
  %17 = load ptr, ptr %16, align 8, !tbaa !3
  %18 = getelementptr ptr, ptr %.04664, i64 %13
  %19 = load ptr, ptr %18, align 8, !tbaa !3
  %20 = load i32, ptr %17, align 8, !tbaa !22
  %21 = icmp slt i32 %20, 0
  br i1 %21, label %Py_INCREF.exit54, label %22

22:                                               ; preds = %15
  %23 = add nuw i32 %20, 1
  store i32 %23, ptr %17, align 8, !tbaa !22
  br label %Py_INCREF.exit54

Py_INCREF.exit54:                                 ; preds = %15, %22
  %24 = load i32, ptr %19, align 8, !tbaa !22
  %25 = icmp slt i32 %24, 0
  br i1 %25, label %Py_INCREF.exit, label %26

26:                                               ; preds = %Py_INCREF.exit54
  %27 = add nuw i32 %24, 1
  store i32 %27, ptr %19, align 8, !tbaa !22
  br label %Py_INCREF.exit

Py_INCREF.exit:                                   ; preds = %Py_INCREF.exit54, %26
  %28 = tail call i32 @PyObject_RichCompareBool(ptr noundef nonnull %17, ptr noundef nonnull %19, i32 noundef 0) #2
  %29 = load i32, ptr %17, align 8, !tbaa !22
  %.not.i55 = icmp sgt i32 %29, -1
  br i1 %.not.i55, label %30, label %Py_DECREF.exit56

30:                                               ; preds = %Py_INCREF.exit
  %31 = add nsw i32 %29, -1
  store i32 %31, ptr %17, align 8, !tbaa !22
  %32 = icmp eq i32 %31, 0
  br i1 %32, label %33, label %Py_DECREF.exit56

33:                                               ; preds = %30
  tail call void @_Py_Dealloc(ptr noundef nonnull %17) #2
  br label %Py_DECREF.exit56

Py_DECREF.exit56:                                 ; preds = %Py_INCREF.exit, %30, %33
  %34 = load i32, ptr %19, align 8, !tbaa !22
  %.not.i = icmp sgt i32 %34, -1
  br i1 %.not.i, label %35, label %Py_DECREF.exit

35:                                               ; preds = %Py_DECREF.exit56
  %36 = add nsw i32 %34, -1
  store i32 %36, ptr %19, align 8, !tbaa !22
  %37 = icmp eq i32 %36, 0
  br i1 %37, label %38, label %Py_DECREF.exit

38:                                               ; preds = %35
  tail call void @_Py_Dealloc(ptr noundef nonnull %19) #2
  br label %Py_DECREF.exit

Py_DECREF.exit:                                   ; preds = %Py_DECREF.exit56, %35, %38
  %39 = icmp slt i32 %28, 0
  br i1 %39, label %.thread, label %40

40:                                               ; preds = %Py_DECREF.exit
  %41 = xor i32 %28, 1
  %42 = zext nneg i32 %41 to i64
  %43 = add i64 %12, %42
  %44 = load ptr, ptr %7, align 8, !tbaa !23
  %.val = load i64, ptr %3, align 8, !tbaa !21
  %.not53 = icmp eq i64 %.val58, %.val
  br i1 %.not53, label %47, label %45

45:                                               ; preds = %40
  %46 = load ptr, ptr @PyExc_RuntimeError, align 8, !tbaa !3
  tail call void @PyErr_SetString(ptr noundef %46, ptr noundef nonnull @.str.13) #2
  br label %.thread

47:                                               ; preds = %40, %.lr.ph
  %.147 = phi ptr [ %.04664, %.lr.ph ], [ %44, %40 ]
  %.044 = phi i64 [ %12, %.lr.ph ], [ %43, %40 ]
  %48 = getelementptr ptr, ptr %.147, i64 %.044
  %49 = load ptr, ptr %48, align 8, !tbaa !3
  %50 = getelementptr ptr, ptr %.147, i64 %.04265
  %51 = load ptr, ptr %50, align 8, !tbaa !3
  store ptr %51, ptr %48, align 8, !tbaa !3
  store ptr %49, ptr %50, align 8, !tbaa !3
  %52 = icmp slt i64 %.044, %8
  br i1 %52, label %.lr.ph, label %._crit_edge, !llvm.loop !29

._crit_edge:                                      ; preds = %47, %6
  %.042.lcssa = phi i64 [ %1, %6 ], [ %.044, %47 ]
  %53 = tail call fastcc i32 @siftdown(ptr noundef %0, i64 noundef %1, i64 noundef %.042.lcssa)
  br label %.thread

.thread:                                          ; preds = %Py_DECREF.exit, %45, %._crit_edge, %4
  %.0 = phi i32 [ -1, %4 ], [ %53, %._crit_edge ], [ -1, %45 ], [ -1, %Py_DECREF.exit ]
  ret i32 %.0
}